target datalayout = "e-m:e-p270:32:32-p271:32:32-p272:64:64-i64:64-i128:128-f80:128-n8:16:32:64-S128"
target triple = "x86_64-pc-linux-gnu"

%struct.simple_ssl_session_st = type { ptr, i32, ptr, i32, ptr }

@.str.412 = private unnamed_addr constant [27 x i8] c"../openssl/apps/s_server.c\00", align 1
@first = internal global ptr null, align 8

; Function Attrs: nounwind uwtable
define internal void @del_session(ptr noundef %0, ptr noundef %1) #0 {
  %3 = alloca ptr, align 8
  %4 = alloca ptr, align 8
  %5 = alloca ptr, align 8
  %6 = alloca ptr, align 8
  %7 = alloca ptr, align 8
  %8 = alloca i32, align 4
  %9 = alloca i32, align 4
  store ptr %0, ptr %3, align 8, !tbaa !33
  store ptr %1, ptr %4, align 8, !tbaa !66
  call void @llvm.lifetime.start.p0(i64 8, ptr %5) #10
  call void @llvm.lifetime.start.p0(i64 8, ptr %6) #10
  store ptr null, ptr %6, align 8, !tbaa !118
  call void @llvm.lifetime.start.p0(i64 8, ptr %7) #10
  call void @llvm.lifetime.start.p0(i64 4, ptr %8) #10
  %10 = load ptr, ptr %4, align 8, !tbaa !66
  %11 = call ptr @SSL_SESSION_get_id(ptr noundef %10, ptr noundef %8)
  store ptr %11, ptr %7, align 8, !tbaa !31
  %12 = load ptr, ptr @first, align 8, !tbaa !118
  store ptr %12, ptr %5, align 8, !tbaa !118
  br label %13

13:                                               ; preds = %54, %2
  %14 = load ptr, ptr %5, align 8, !tbaa !118
  %15 = icmp ne ptr %14, null
  br i1 %15, label %16, label %58

16:                                               ; preds = %13
  %17 = load i32, ptr %8, align 4, !tbaa !4
  %18 = load ptr, ptr %5, align 8, !tbaa !118
  %19 = getelementptr inbounds nuw %struct.simple_ssl_session_st, ptr %18, i32 0, i32 1
  %20 = load i32, ptr %19, align 8, !tbaa !160
  %21 = icmp eq i32 %17, %20
  br i1 %21, label %22, label %52

22:                                               ; preds = %16
  %23 = load ptr, ptr %5, align 8, !tbaa !118
  %24 = getelementptr inbounds nuw %struct.simple_ssl_session_st, ptr %23, i32 0, i32 0
  %25 = load ptr, ptr %24, align 8, !tbaa !120
  %26 = load ptr, ptr %7, align 8, !tbaa !31
  %27 = load i32, ptr %8, align 4, !tbaa !4
  %28 = zext i32 %27 to i64
  %29 = call i32 @memcmp(ptr noundef %25, ptr noundef %26, i64 noundef %28) #11
  %30 = icmp ne i32 %29, 0
  br i1 %30, label %52, label %31

31:                                               ; preds = %22
  %32 = load ptr, ptr %6, align 8, !tbaa !118
  %33 = icmp ne ptr %32, null
  br i1 %33, label %34, label %40

34:                                               ; preds = %31
  %35 = load ptr, ptr %5, align 8, !tbaa !118
  %36 = getelementptr inbounds nuw %struct.simple_ssl_session_st, ptr %35, i32 0, i32 4
  %37 = load ptr, ptr %36, align 8, !tbaa !123
  %38 = load ptr, ptr %6, align 8, !tbaa !118
  %39 = getelementptr inbounds nuw %struct.simple_ssl_session_st, ptr %38, i32 0, i32 4
  store ptr %37, ptr %39, align 8, !tbaa !123
  br label %44

40:                                               ; preds = %31
  %41 = load ptr, ptr %5, align 8, !tbaa !118
  %42 = getelementptr inbounds nuw %struct.simple_ssl_session_st, ptr %41, i32 0, i32 4
  %43 = load ptr, ptr %42, align 8, !tbaa !123
  store ptr %43, ptr @first, align 8, !tbaa !118
  br label %44

44:                                               ; preds = %40, %34
  %45 = load ptr, ptr %5, align 8, !tbaa !118
  %46 = getelementptr inbounds nuw %struct.simple_ssl_session_st, ptr %45, i32 0, i32 0
  %47 = load ptr, ptr %46, align 8, !tbaa !120
  call void @CRYPTO_free(ptr noundef %47, ptr noundef @.str.412, i32 noundef 3907)
  %48 = load ptr, ptr %5, align 8, !tbaa !118
  %49 = getelementptr inbounds nuw %struct.simple_ssl_session_st, ptr %48, i32 0, i32 2
  %50 = load ptr, ptr %49, align 8, !tbaa !122
  call void @CRYPTO_free(ptr noundef %50, ptr noundef @.str.412, i32 noundef 3908)
  %51 = load ptr, ptr %5, align 8, !tbaa !118
  call void @CRYPTO_free(ptr noundef %51, ptr noundef @.str.412, i32 noundef 3909)
  store i32 1, ptr %9, align 4
  br label %59

52:                                               ; preds = %22, %16
  %53 = load ptr, ptr %5, align 8, !tbaa !118
  store ptr %53, ptr %6, align 8, !tbaa !118
  br label %54

54:                                               ; preds = %52
  %55 = load ptr, ptr %5, align 8, !tbaa !118
  %56 = getelementptr inbounds nuw %struct.simple_ssl_session_st, ptr %55, i32 0, i32 4
  %57 = load ptr, ptr %56, align 8, !tbaa !123
  store ptr %57, ptr %5, align 8, !tbaa !118
  br label %13, !llvm.loop !162

58:                                               ; preds = %13
  store i32 0, ptr %9, align 4
  br label %59

59:                                               ; preds = %58, %44
  call void @llvm.lifetime.end.p0(i64 4, ptr %8) #10
  call void @llvm.lifetime.end.p0(i64 8, ptr %7) #10
  call void @llvm.lifetime.end.p0(i64 8, ptr %6) #10
  call void @llvm.lifetime.end.p0(i64 8, ptr %5) #10
  %60 = load i32, ptr %9, align 4
  switch i32 %60, label %62 [
    i32 0, label %61
    i32 1, label %61
  ]

61:                                               ; preds = %59, %59
  ret void

62:                                               ; preds = %59
  unreachable
}