; Function Attrs: nounwind uwtable
define internal void @del_session(ptr readnone captures(none) %0, ptr noundef %1) #0 {
  %3 = alloca i32, align 4
  call void @llvm.lifetime.start.p0(i64 4, ptr nonnull %3) #14
  %4 = call ptr @SSL_SESSION_get_id(ptr noundef %1, ptr noundef nonnull %3) #14
  %.020 = load ptr, ptr @first, align 8, !tbaa !51
  %.not21 = icmp eq ptr %.020, null
  br i1 %.not21, label %.loopexit, label %.lr.ph

.lr.ph:                                           ; preds = %2
  %5 = load i32, ptr %3, align 4, !tbaa !13
  %6 = zext i32 %5 to i64
  br label %7

7:                                                ; preds = %.lr.ph, %22
  %.023 = phi ptr [ %.020, %.lr.ph ], [ %.0, %22 ]
  %.01422 = phi ptr [ null, %.lr.ph ], [ %.023, %22 ]
  %8 = getelementptr inbounds nuw i8, ptr %.023, i64 8
  %9 = load i32, ptr %8, align 8, !tbaa !97
  %10 = icmp eq i32 %5, %9
  br i1 %10, label %11, label %22

11:                                               ; preds = %7
  %12 = load ptr, ptr %.023, align 8, !tbaa !53
  %bcmp = call i32 @bcmp(ptr %12, ptr %4, i64 %6)
  %.not16 = icmp eq i32 %bcmp, 0
  br i1 %.not16, label %13, label %22

13:                                               ; preds = %11
  %.not17 = icmp eq ptr %.01422, null
  %14 = getelementptr inbounds nuw i8, ptr %.023, i64 32
  %15 = load ptr, ptr %14, align 8, !tbaa !56
  br i1 %.not17, label %18, label %16

16:                                               ; preds = %13
  %17 = getelementptr inbounds nuw i8, ptr %.01422, i64 32
  store ptr %15, ptr %17, align 8, !tbaa !56
  br label %19

18:                                               ; preds = %13
  store ptr %15, ptr @first, align 8, !tbaa !51
  br label %19

19:                                               ; preds = %18, %16
  call void @CRYPTO_free(ptr noundef %12, ptr noundef nonnull @.str.412, i32 noundef 3907) #14
  %20 = getelementptr inbounds nuw i8, ptr %.023, i64 16
  %21 = load ptr, ptr %20, align 8, !tbaa !55
  call void @CRYPTO_free(ptr noundef %21, ptr noundef nonnull @.str.412, i32 noundef 3908) #14
  call void @CRYPTO_free(ptr noundef nonnull %.023, ptr noundef nonnull @.str.412, i32 noundef 3909) #14
  br label %.loopexit

22:                                               ; preds = %11, %7
  %23 = getelementptr inbounds nuw i8, ptr %.023, i64 32
  %.0 = load ptr, ptr %23, align 8, !tbaa !51
  %.not = icmp eq ptr %.0, null
  br i1 %.not, label %.loopexit, label %7, !llvm.loop !99

.loopexit:                                        ; preds = %22, %2, %19
  call void @llvm.lifetime.end.p0(i64 4, ptr nonnull %3) #14
  ret void
}